
4WD-Car-Sprints.elf:     file format elf32-avr

Sections:
Idx Name          Size      VMA       LMA       File off  Algn
  0 .text         000003cc  00000000  00000000  00000074  2**1
                  CONTENTS, ALLOC, LOAD, READONLY, CODE
  1 .data         00000000  00800060  00800060  00000440  2**0
                  CONTENTS, ALLOC, LOAD, DATA
  2 .bss          00000014  00800060  00800060  00000440  2**0
                  ALLOC
  3 .comment      00000030  00000000  00000000  00000440  2**0
                  CONTENTS, READONLY
  4 .note.gnu.avr.deviceinfo 0000003c  00000000  00000000  00000470  2**2
                  CONTENTS, READONLY
  5 .debug_aranges 00000118  00000000  00000000  000004ac  2**0
                  CONTENTS, READONLY, DEBUGGING
  6 .debug_info   00001188  00000000  00000000  000005c4  2**0
                  CONTENTS, READONLY, DEBUGGING
  7 .debug_abbrev 00000862  00000000  00000000  0000174c  2**0
                  CONTENTS, READONLY, DEBUGGING
  8 .debug_line   00000add  00000000  00000000  00001fae  2**0
                  CONTENTS, READONLY, DEBUGGING
  9 .debug_frame  00000508  00000000  00000000  00002a8c  2**2
                  CONTENTS, READONLY, DEBUGGING
 10 .debug_str    000007ae  00000000  00000000  00002f94  2**0
                  CONTENTS, READONLY, DEBUGGING
 11 .debug_loc    0000132c  00000000  00000000  00003742  2**0
                  CONTENTS, READONLY, DEBUGGING
 12 .debug_ranges 00000168  00000000  00000000  00004a6e  2**0
                  CONTENTS, READONLY, DEBUGGING

Disassembly of section .text:

00000000 <__vectors>:
   0:	0c 94 2a 00 	jmp	0x54	; 0x54 <__ctors_end>
   4:	0c 94 49 00 	jmp	0x92	; 0x92 <__vector_1>
   8:	0c 94 72 00 	jmp	0xe4	; 0xe4 <__vector_2>
   c:	0c 94 47 00 	jmp	0x8e	; 0x8e <__bad_interrupt>
  10:	0c 94 9b 00 	jmp	0x136	; 0x136 <__vector_4>
  14:	0c 94 c4 00 	jmp	0x188	; 0x188 <__vector_5>
  18:	0c 94 ed 00 	jmp	0x1da	; 0x1da <__vector_6>
  1c:	0c 94 16 01 	jmp	0x22c	; 0x22c <__vector_7>
  20:	0c 94 3f 01 	jmp	0x27e	; 0x27e <__vector_8>
  24:	0c 94 68 01 	jmp	0x2d0	; 0x2d0 <__vector_9>
  28:	0c 94 91 01 	jmp	0x322	; 0x322 <__vector_10>
  2c:	0c 94 ba 01 	jmp	0x374	; 0x374 <__vector_11>
  30:	0c 94 47 00 	jmp	0x8e	; 0x8e <__bad_interrupt>
  34:	0c 94 47 00 	jmp	0x8e	; 0x8e <__bad_interrupt>
  38:	0c 94 47 00 	jmp	0x8e	; 0x8e <__bad_interrupt>
  3c:	0c 94 47 00 	jmp	0x8e	; 0x8e <__bad_interrupt>
  40:	0c 94 47 00 	jmp	0x8e	; 0x8e <__bad_interrupt>
  44:	0c 94 47 00 	jmp	0x8e	; 0x8e <__bad_interrupt>
  48:	0c 94 47 00 	jmp	0x8e	; 0x8e <__bad_interrupt>
  4c:	0c 94 47 00 	jmp	0x8e	; 0x8e <__bad_interrupt>
  50:	0c 94 47 00 	jmp	0x8e	; 0x8e <__bad_interrupt>

00000054 <__ctors_end>:
  54:	11 24       	eor	r1, r1
  56:	1f be       	out	0x3f, r1	; 63
  58:	cf e5       	ldi	r28, 0x5F	; 95
  5a:	d8 e0       	ldi	r29, 0x08	; 8
  5c:	de bf       	out	0x3e, r29	; 62
  5e:	cd bf       	out	0x3d, r28	; 61

00000060 <__do_copy_data>:
  60:	10 e0       	ldi	r17, 0x00	; 0
  62:	a0 e6       	ldi	r26, 0x60	; 96
  64:	b0 e0       	ldi	r27, 0x00	; 0
  66:	ec ec       	ldi	r30, 0xCC	; 204
  68:	f3 e0       	ldi	r31, 0x03	; 3
  6a:	02 c0       	rjmp	.+4      	; 0x70 <__do_copy_data+0x10>
  6c:	05 90       	lpm	r0, Z+
  6e:	0d 92       	st	X+, r0
  70:	a0 36       	cpi	r26, 0x60	; 96
  72:	b1 07       	cpc	r27, r17
  74:	d9 f7       	brne	.-10     	; 0x6c <__do_copy_data+0xc>

00000076 <__do_clear_bss>:
  76:	20 e0       	ldi	r18, 0x00	; 0
  78:	a0 e6       	ldi	r26, 0x60	; 96
  7a:	b0 e0       	ldi	r27, 0x00	; 0
  7c:	01 c0       	rjmp	.+2      	; 0x80 <.do_clear_bss_start>

0000007e <.do_clear_bss_loop>:
  7e:	1d 92       	st	X+, r1

00000080 <.do_clear_bss_start>:
  80:	a4 37       	cpi	r26, 0x74	; 116
  82:	b2 07       	cpc	r27, r18
  84:	e1 f7       	brne	.-8      	; 0x7e <.do_clear_bss_loop>
  86:	0e 94 e3 01 	call	0x3c6	; 0x3c6 <main>
  8a:	0c 94 e4 01 	jmp	0x3c8	; 0x3c8 <_exit>

0000008e <__bad_interrupt>:
  8e:	0c 94 00 00 	jmp	0	; 0x0 <__vectors>

00000092 <__vector_1>:
	}
	return u8_a_retFunction;
}


void __vector_1 (void){
  92:	1f 92       	push	r1
  94:	0f 92       	push	r0
  96:	0f b6       	in	r0, 0x3f	; 63
  98:	0f 92       	push	r0
  9a:	11 24       	eor	r1, r1
  9c:	2f 93       	push	r18
  9e:	3f 93       	push	r19
  a0:	4f 93       	push	r20
  a2:	5f 93       	push	r21
  a4:	6f 93       	push	r22
  a6:	7f 93       	push	r23
  a8:	8f 93       	push	r24
  aa:	9f 93       	push	r25
  ac:	af 93       	push	r26
  ae:	bf 93       	push	r27
  b0:	ef 93       	push	r30
  b2:	ff 93       	push	r31
	if(v_gs_ptrfuncInt0 != NULL) 
  b4:	e0 91 62 00 	lds	r30, 0x0062	; 0x800062 <v_gs_ptrfuncInt0>
  b8:	f0 91 63 00 	lds	r31, 0x0063	; 0x800063 <v_gs_ptrfuncInt0+0x1>
  bc:	30 97       	sbiw	r30, 0x00	; 0
  be:	09 f0       	breq	.+2      	; 0xc2 <__vector_1+0x30>
	{
		v_gs_ptrfuncInt0();
  c0:	09 95       	icall
	}
	else
	{
		// do nothing
	}
}
  c2:	ff 91       	pop	r31
  c4:	ef 91       	pop	r30
  c6:	bf 91       	pop	r27
  c8:	af 91       	pop	r26
  ca:	9f 91       	pop	r25
  cc:	8f 91       	pop	r24
  ce:	7f 91       	pop	r23
  d0:	6f 91       	pop	r22
  d2:	5f 91       	pop	r21
  d4:	4f 91       	pop	r20
  d6:	3f 91       	pop	r19
  d8:	2f 91       	pop	r18
  da:	0f 90       	pop	r0
  dc:	0f be       	out	0x3f, r0	; 63
  de:	0f 90       	pop	r0
  e0:	1f 90       	pop	r1
  e2:	18 95       	reti

000000e4 <__vector_2>:
void __vector_2 (void){
  e4:	1f 92       	push	r1
  e6:	0f 92       	push	r0
  e8:	0f b6       	in	r0, 0x3f	; 63
  ea:	0f 92       	push	r0
  ec:	11 24       	eor	r1, r1
  ee:	2f 93       	push	r18
  f0:	3f 93       	push	r19
  f2:	4f 93       	push	r20
  f4:	5f 93       	push	r21
  f6:	6f 93       	push	r22
  f8:	7f 93       	push	r23
  fa:	8f 93       	push	r24
  fc:	9f 93       	push	r25
  fe:	af 93       	push	r26
 100:	bf 93       	push	r27
 102:	ef 93       	push	r30
 104:	ff 93       	push	r31
	if(v_gs_ptrfuncInt1 != NULL) 
 106:	e0 91 60 00 	lds	r30, 0x0060	; 0x800060 <__DATA_REGION_ORIGIN__>
 10a:	f0 91 61 00 	lds	r31, 0x0061	; 0x800061 <__DATA_REGION_ORIGIN__+0x1>
 10e:	30 97       	sbiw	r30, 0x00	; 0
 110:	09 f0       	breq	.+2      	; 0x114 <__vector_2+0x30>
	{
		v_gs_ptrfuncInt1();
 112:	09 95       	icall
	}
	else
	{
		// do nothing
	}
}
 114:	ff 91       	pop	r31
 116:	ef 91       	pop	r30
 118:	bf 91       	pop	r27
 11a:	af 91       	pop	r26
 11c:	9f 91       	pop	r25
 11e:	8f 91       	pop	r24
 120:	7f 91       	pop	r23
 122:	6f 91       	pop	r22
 124:	5f 91       	pop	r21
 126:	4f 91       	pop	r20
 128:	3f 91       	pop	r19
 12a:	2f 91       	pop	r18
 12c:	0f 90       	pop	r0
 12e:	0f be       	out	0x3f, r0	; 63
 130:	0f 90       	pop	r0
 132:	1f 90       	pop	r1
 134:	18 95       	reti

00000136 <__vector_4>:
			*u16_a_frequency =  (u16) ((d64)((d64)F_CPU / (d64)prescaler)   / (d64) Period);
			*u16_a_timeOn = (u16) ( ( (d64)prescaler / (d64)((d64)F_CPU / 1000000.0) ) * Ton);
	}
	return en_a_retFunction;
}
void __vector_4(void) {
 136:	1f 92       	push	r1
 138:	0f 92       	push	r0
 13a:	0f b6       	in	r0, 0x3f	; 63
 13c:	0f 92       	push	r0
 13e:	11 24       	eor	r1, r1
 140:	2f 93       	push	r18
 142:	3f 93       	push	r19
 144:	4f 93       	push	r20
 146:	5f 93       	push	r21
 148:	6f 93       	push	r22
 14a:	7f 93       	push	r23
 14c:	8f 93       	push	r24
 14e:	9f 93       	push	r25
 150:	af 93       	push	r26
 152:	bf 93       	push	r27
 154:	ef 93       	push	r30
 156:	ff 93       	push	r31
	if (v_g_callbackFunc[TIMER2_COMP] != NULL)
 158:	e0 91 64 00 	lds	r30, 0x0064	; 0x800064 <v_g_callbackFunc>
 15c:	f0 91 65 00 	lds	r31, 0x0065	; 0x800065 <v_g_callbackFunc+0x1>
 160:	30 97       	sbiw	r30, 0x00	; 0
 162:	09 f0       	breq	.+2      	; 0x166 <__vector_4+0x30>
	v_g_callbackFunc[TIMER2_COMP]();
 164:	09 95       	icall
}
 166:	ff 91       	pop	r31
 168:	ef 91       	pop	r30
 16a:	bf 91       	pop	r27
 16c:	af 91       	pop	r26
 16e:	9f 91       	pop	r25
 170:	8f 91       	pop	r24
 172:	7f 91       	pop	r23
 174:	6f 91       	pop	r22
 176:	5f 91       	pop	r21
 178:	4f 91       	pop	r20
 17a:	3f 91       	pop	r19
 17c:	2f 91       	pop	r18
 17e:	0f 90       	pop	r0
 180:	0f be       	out	0x3f, r0	; 63
 182:	0f 90       	pop	r0
 184:	1f 90       	pop	r1
 186:	18 95       	reti

00000188 <__vector_5>:
void __vector_5(void) {
 188:	1f 92       	push	r1
 18a:	0f 92       	push	r0
 18c:	0f b6       	in	r0, 0x3f	; 63
 18e:	0f 92       	push	r0
 190:	11 24       	eor	r1, r1
 192:	2f 93       	push	r18
 194:	3f 93       	push	r19
 196:	4f 93       	push	r20
 198:	5f 93       	push	r21
 19a:	6f 93       	push	r22
 19c:	7f 93       	push	r23
 19e:	8f 93       	push	r24
 1a0:	9f 93       	push	r25
 1a2:	af 93       	push	r26
 1a4:	bf 93       	push	r27
 1a6:	ef 93       	push	r30
 1a8:	ff 93       	push	r31
	if (v_g_callbackFunc[TIMER2_OVF] != NULL)
 1aa:	e0 91 66 00 	lds	r30, 0x0066	; 0x800066 <v_g_callbackFunc+0x2>
 1ae:	f0 91 67 00 	lds	r31, 0x0067	; 0x800067 <v_g_callbackFunc+0x3>
 1b2:	30 97       	sbiw	r30, 0x00	; 0
 1b4:	09 f0       	breq	.+2      	; 0x1b8 <__vector_5+0x30>
	v_g_callbackFunc[TIMER2_OVF]();
 1b6:	09 95       	icall
}
 1b8:	ff 91       	pop	r31
 1ba:	ef 91       	pop	r30
 1bc:	bf 91       	pop	r27
 1be:	af 91       	pop	r26
 1c0:	9f 91       	pop	r25
 1c2:	8f 91       	pop	r24
 1c4:	7f 91       	pop	r23
 1c6:	6f 91       	pop	r22
 1c8:	5f 91       	pop	r21
 1ca:	4f 91       	pop	r20
 1cc:	3f 91       	pop	r19
 1ce:	2f 91       	pop	r18
 1d0:	0f 90       	pop	r0
 1d2:	0f be       	out	0x3f, r0	; 63
 1d4:	0f 90       	pop	r0
 1d6:	1f 90       	pop	r1
 1d8:	18 95       	reti

000001da <__vector_6>:
void __vector_6(void) {
 1da:	1f 92       	push	r1
 1dc:	0f 92       	push	r0
 1de:	0f b6       	in	r0, 0x3f	; 63
 1e0:	0f 92       	push	r0
 1e2:	11 24       	eor	r1, r1
 1e4:	2f 93       	push	r18
 1e6:	3f 93       	push	r19
 1e8:	4f 93       	push	r20
 1ea:	5f 93       	push	r21
 1ec:	6f 93       	push	r22
 1ee:	7f 93       	push	r23
 1f0:	8f 93       	push	r24
 1f2:	9f 93       	push	r25
 1f4:	af 93       	push	r26
 1f6:	bf 93       	push	r27
 1f8:	ef 93       	push	r30
 1fa:	ff 93       	push	r31
	if (v_g_callbackFunc[TIMER1_CAPT] != NULL)
 1fc:	e0 91 68 00 	lds	r30, 0x0068	; 0x800068 <v_g_callbackFunc+0x4>
 200:	f0 91 69 00 	lds	r31, 0x0069	; 0x800069 <v_g_callbackFunc+0x5>
 204:	30 97       	sbiw	r30, 0x00	; 0
 206:	09 f0       	breq	.+2      	; 0x20a <__vector_6+0x30>
	v_g_callbackFunc[TIMER1_CAPT]();
 208:	09 95       	icall

}
 20a:	ff 91       	pop	r31
 20c:	ef 91       	pop	r30
 20e:	bf 91       	pop	r27
 210:	af 91       	pop	r26
 212:	9f 91       	pop	r25
 214:	8f 91       	pop	r24
 216:	7f 91       	pop	r23
 218:	6f 91       	pop	r22
 21a:	5f 91       	pop	r21
 21c:	4f 91       	pop	r20
 21e:	3f 91       	pop	r19
 220:	2f 91       	pop	r18
 222:	0f 90       	pop	r0
 224:	0f be       	out	0x3f, r0	; 63
 226:	0f 90       	pop	r0
 228:	1f 90       	pop	r1
 22a:	18 95       	reti

0000022c <__vector_7>:
void __vector_7(void) {
 22c:	1f 92       	push	r1
 22e:	0f 92       	push	r0
 230:	0f b6       	in	r0, 0x3f	; 63
 232:	0f 92       	push	r0
 234:	11 24       	eor	r1, r1
 236:	2f 93       	push	r18
 238:	3f 93       	push	r19
 23a:	4f 93       	push	r20
 23c:	5f 93       	push	r21
 23e:	6f 93       	push	r22
 240:	7f 93       	push	r23
 242:	8f 93       	push	r24
 244:	9f 93       	push	r25
 246:	af 93       	push	r26
 248:	bf 93       	push	r27
 24a:	ef 93       	push	r30
 24c:	ff 93       	push	r31
	if (v_g_callbackFunc[TIMER1_COMPA] != NULL)
 24e:	e0 91 6a 00 	lds	r30, 0x006A	; 0x80006a <v_g_callbackFunc+0x6>
 252:	f0 91 6b 00 	lds	r31, 0x006B	; 0x80006b <v_g_callbackFunc+0x7>
 256:	30 97       	sbiw	r30, 0x00	; 0
 258:	09 f0       	breq	.+2      	; 0x25c <__vector_7+0x30>
	v_g_callbackFunc[TIMER1_COMPA]();
 25a:	09 95       	icall
}
 25c:	ff 91       	pop	r31
 25e:	ef 91       	pop	r30
 260:	bf 91       	pop	r27
 262:	af 91       	pop	r26
 264:	9f 91       	pop	r25
 266:	8f 91       	pop	r24
 268:	7f 91       	pop	r23
 26a:	6f 91       	pop	r22
 26c:	5f 91       	pop	r21
 26e:	4f 91       	pop	r20
 270:	3f 91       	pop	r19
 272:	2f 91       	pop	r18
 274:	0f 90       	pop	r0
 276:	0f be       	out	0x3f, r0	; 63
 278:	0f 90       	pop	r0
 27a:	1f 90       	pop	r1
 27c:	18 95       	reti

0000027e <__vector_8>:
void __vector_8(void) {
 27e:	1f 92       	push	r1
 280:	0f 92       	push	r0
 282:	0f b6       	in	r0, 0x3f	; 63
 284:	0f 92       	push	r0
 286:	11 24       	eor	r1, r1
 288:	2f 93       	push	r18
 28a:	3f 93       	push	r19
 28c:	4f 93       	push	r20
 28e:	5f 93       	push	r21
 290:	6f 93       	push	r22
 292:	7f 93       	push	r23
 294:	8f 93       	push	r24
 296:	9f 93       	push	r25
 298:	af 93       	push	r26
 29a:	bf 93       	push	r27
 29c:	ef 93       	push	r30
 29e:	ff 93       	push	r31
	if (v_g_callbackFunc[TIMER1_COMPB] != NULL)
 2a0:	e0 91 6c 00 	lds	r30, 0x006C	; 0x80006c <v_g_callbackFunc+0x8>
 2a4:	f0 91 6d 00 	lds	r31, 0x006D	; 0x80006d <v_g_callbackFunc+0x9>
 2a8:	30 97       	sbiw	r30, 0x00	; 0
 2aa:	09 f0       	breq	.+2      	; 0x2ae <__vector_8+0x30>
	v_g_callbackFunc[TIMER1_COMPB]();
 2ac:	09 95       	icall
}
 2ae:	ff 91       	pop	r31
 2b0:	ef 91       	pop	r30
 2b2:	bf 91       	pop	r27
 2b4:	af 91       	pop	r26
 2b6:	9f 91       	pop	r25
 2b8:	8f 91       	pop	r24
 2ba:	7f 91       	pop	r23
 2bc:	6f 91       	pop	r22
 2be:	5f 91       	pop	r21
 2c0:	4f 91       	pop	r20
 2c2:	3f 91       	pop	r19
 2c4:	2f 91       	pop	r18
 2c6:	0f 90       	pop	r0
 2c8:	0f be       	out	0x3f, r0	; 63
 2ca:	0f 90       	pop	r0
 2cc:	1f 90       	pop	r1
 2ce:	18 95       	reti

000002d0 <__vector_9>:
void __vector_9(void) {
 2d0:	1f 92       	push	r1
 2d2:	0f 92       	push	r0
 2d4:	0f b6       	in	r0, 0x3f	; 63
 2d6:	0f 92       	push	r0
 2d8:	11 24       	eor	r1, r1
 2da:	2f 93       	push	r18
 2dc:	3f 93       	push	r19
 2de:	4f 93       	push	r20
 2e0:	5f 93       	push	r21
 2e2:	6f 93       	push	r22
 2e4:	7f 93       	push	r23
 2e6:	8f 93       	push	r24
 2e8:	9f 93       	push	r25
 2ea:	af 93       	push	r26
 2ec:	bf 93       	push	r27
 2ee:	ef 93       	push	r30
 2f0:	ff 93       	push	r31
	if (v_g_callbackFunc[TIMER1_OVF] != NULL)
 2f2:	e0 91 6e 00 	lds	r30, 0x006E	; 0x80006e <v_g_callbackFunc+0xa>
 2f6:	f0 91 6f 00 	lds	r31, 0x006F	; 0x80006f <v_g_callbackFunc+0xb>
 2fa:	30 97       	sbiw	r30, 0x00	; 0
 2fc:	09 f0       	breq	.+2      	; 0x300 <__vector_9+0x30>
	v_g_callbackFunc[TIMER1_OVF]();
 2fe:	09 95       	icall
}
 300:	ff 91       	pop	r31
 302:	ef 91       	pop	r30
 304:	bf 91       	pop	r27
 306:	af 91       	pop	r26
 308:	9f 91       	pop	r25
 30a:	8f 91       	pop	r24
 30c:	7f 91       	pop	r23
 30e:	6f 91       	pop	r22
 310:	5f 91       	pop	r21
 312:	4f 91       	pop	r20
 314:	3f 91       	pop	r19
 316:	2f 91       	pop	r18
 318:	0f 90       	pop	r0
 31a:	0f be       	out	0x3f, r0	; 63
 31c:	0f 90       	pop	r0
 31e:	1f 90       	pop	r1
 320:	18 95       	reti

00000322 <__vector_10>:
void __vector_10(void) {
 322:	1f 92       	push	r1
 324:	0f 92       	push	r0
 326:	0f b6       	in	r0, 0x3f	; 63
 328:	0f 92       	push	r0
 32a:	11 24       	eor	r1, r1
 32c:	2f 93       	push	r18
 32e:	3f 93       	push	r19
 330:	4f 93       	push	r20
 332:	5f 93       	push	r21
 334:	6f 93       	push	r22
 336:	7f 93       	push	r23
 338:	8f 93       	push	r24
 33a:	9f 93       	push	r25
 33c:	af 93       	push	r26
 33e:	bf 93       	push	r27
 340:	ef 93       	push	r30
 342:	ff 93       	push	r31
	if (v_g_callbackFunc[TIMER0_COMP] != NULL)
 344:	e0 91 70 00 	lds	r30, 0x0070	; 0x800070 <v_g_callbackFunc+0xc>
 348:	f0 91 71 00 	lds	r31, 0x0071	; 0x800071 <v_g_callbackFunc+0xd>
 34c:	30 97       	sbiw	r30, 0x00	; 0
 34e:	09 f0       	breq	.+2      	; 0x352 <__vector_10+0x30>
	v_g_callbackFunc[TIMER0_COMP]();
 350:	09 95       	icall
}
 352:	ff 91       	pop	r31
 354:	ef 91       	pop	r30
 356:	bf 91       	pop	r27
 358:	af 91       	pop	r26
 35a:	9f 91       	pop	r25
 35c:	8f 91       	pop	r24
 35e:	7f 91       	pop	r23
 360:	6f 91       	pop	r22
 362:	5f 91       	pop	r21
 364:	4f 91       	pop	r20
 366:	3f 91       	pop	r19
 368:	2f 91       	pop	r18
 36a:	0f 90       	pop	r0
 36c:	0f be       	out	0x3f, r0	; 63
 36e:	0f 90       	pop	r0
 370:	1f 90       	pop	r1
 372:	18 95       	reti

00000374 <__vector_11>:
void __vector_11(void) {
 374:	1f 92       	push	r1
 376:	0f 92       	push	r0
 378:	0f b6       	in	r0, 0x3f	; 63
 37a:	0f 92       	push	r0
 37c:	11 24       	eor	r1, r1
 37e:	2f 93       	push	r18
 380:	3f 93       	push	r19
 382:	4f 93       	push	r20
 384:	5f 93       	push	r21
 386:	6f 93       	push	r22
 388:	7f 93       	push	r23
 38a:	8f 93       	push	r24
 38c:	9f 93       	push	r25
 38e:	af 93       	push	r26
 390:	bf 93       	push	r27
 392:	ef 93       	push	r30
 394:	ff 93       	push	r31
	if (v_g_callbackFunc[TIMER0_OVF] != NULL)
 396:	e0 91 72 00 	lds	r30, 0x0072	; 0x800072 <v_g_callbackFunc+0xe>
 39a:	f0 91 73 00 	lds	r31, 0x0073	; 0x800073 <v_g_callbackFunc+0xf>
 39e:	30 97       	sbiw	r30, 0x00	; 0
 3a0:	09 f0       	breq	.+2      	; 0x3a4 <__vector_11+0x30>
	v_g_callbackFunc[TIMER0_OVF]();
 3a2:	09 95       	icall
 3a4:	ff 91       	pop	r31
 3a6:	ef 91       	pop	r30
 3a8:	bf 91       	pop	r27
 3aa:	af 91       	pop	r26
 3ac:	9f 91       	pop	r25
 3ae:	8f 91       	pop	r24
 3b0:	7f 91       	pop	r23
 3b2:	6f 91       	pop	r22
 3b4:	5f 91       	pop	r21
 3b6:	4f 91       	pop	r20
 3b8:	3f 91       	pop	r19
 3ba:	2f 91       	pop	r18
 3bc:	0f 90       	pop	r0
 3be:	0f be       	out	0x3f, r0	; 63
 3c0:	0f 90       	pop	r0
 3c2:	1f 90       	pop	r1
 3c4:	18 95       	reti

000003c6 <main>:
extern en_systemStatus en_g_carStatus ;
extern en_systemStatus u8_g_halfSecondStop ;
u8 u8_g_pwmDutyCycle = 231;

int main(void)
{
 3c6:	ff cf       	rjmp	.-2      	; 0x3c6 <main>

000003c8 <_exit>:
 3c8:	f8 94       	cli

000003ca <__stop_program>:
 3ca:	ff cf       	rjmp	.-2      	; 0x3ca <__stop_program>
